target datalayout = "e-m:e-p270:32:32-p271:32:32-p272:64:64-i64:64-i128:128-f80:128-n8:16:32:64-S128"
target triple = "x86_64-pc-linux-gnu"

%struct.Vec_Int_t_ = type { i32, i32, ptr }

; Function Attrs: inlinehint nounwind uwtable
define internal i32 @Vec_IntSize(ptr noundef %0) #7 {
  %2 = alloca ptr, align 8
  store ptr %0, ptr %2, align 8, !tbaa !26
  %3 = load ptr, ptr %2, align 8, !tbaa !26
  %4 = getelementptr inbounds nuw %struct.Vec_Int_t_, ptr %3, i32 0, i32 1
  %5 = load i32, ptr %4, align 4, !tbaa !28
  ret i32 %5
}

; Function Attrs: nounwind uwtable
define ptr @Kit_TruthToGraph2(ptr noundef %0, ptr noundef %1, i32 noundef %2, ptr noundef %3) #0 {
  %5 = alloca ptr, align 8
  %6 = alloca ptr, align 8
  %7 = alloca ptr, align 8
  %8 = alloca i32, align 4
  %9 = alloca ptr, align 8
  %10 = alloca ptr, align 8
  %11 = alloca i32, align 4
  %12 = alloca i32, align 4
  store ptr %0, ptr %6, align 8, !tbaa !24
  store ptr %1, ptr %7, align 8, !tbaa !24
  store i32 %2, ptr %8, align 4, !tbaa !3
  store ptr %3, ptr %9, align 8, !tbaa !26
  call void @llvm.lifetime.start.p0(i64 8, ptr %10) #13
  call void @llvm.lifetime.start.p0(i64 4, ptr %11) #13
  %13 = load ptr, ptr %6, align 8, !tbaa !24
  %14 = load ptr, ptr %7, align 8, !tbaa !24
  %15 = load i32, ptr %8, align 4, !tbaa !3
  %16 = load ptr, ptr %9, align 8, !tbaa !26
  %17 = call i32 @Kit_TruthIsop2(ptr noundef %13, ptr noundef %14, i32 noundef %15, ptr noundef %16, i32 noundef 0, i32 noundef 0)
  store i32 %17, ptr %11, align 4, !tbaa !3
  %18 = load i32, ptr %11, align 4, !tbaa !3
  %19 = icmp eq i32 %18, -1
  br i1 %19, label %20, label %21

20:                                               ; preds = %4
  store ptr null, ptr %5, align 8
  store i32 1, ptr %12, align 4
  br label %33

21:                                               ; preds = %4
  %22 = load ptr, ptr %9, align 8, !tbaa !26
  %23 = call i32 @Vec_IntSize(ptr noundef %22)
  %24 = icmp sgt i32 %23, 65536
  br i1 %24, label %25, label %26

25:                                               ; preds = %21
  store ptr null, ptr %5, align 8
  store i32 1, ptr %12, align 4
  br label %33

26:                                               ; preds = %21
  %27 = load ptr, ptr %9, align 8, !tbaa !26
  %28 = load i32, ptr %11, align 4, !tbaa !3
  %29 = load i32, ptr %8, align 4, !tbaa !3
  %30 = load ptr, ptr %9, align 8, !tbaa !26
  %31 = call ptr @Kit_SopFactor(ptr noundef %27, i32 noundef %28, i32 noundef %29, ptr noundef %30)
  store ptr %31, ptr %10, align 8, !tbaa !7
  %32 = load ptr, ptr %10, align 8, !tbaa !7
  store ptr %32, ptr %5, align 8
  store i32 1, ptr %12, align 4
  br label %33

33:                                               ; preds = %26, %25, %20
  call void @llvm.lifetime.end.p0(i64 4, ptr %11) #13
  call void @llvm.lifetime.end.p0(i64 8, ptr %10) #13
  %34 = load ptr, ptr %5, align 8
  ret ptr %34
}