; Function Attrs: nounwind uwtable
define ptr @Kit_TruthToGraph2(ptr noundef %0, ptr noundef %1, i32 noundef %2, ptr noundef %3) local_unnamed_addr #8 {
  %5 = tail call i32 @Kit_TruthIsop2(ptr noundef %0, ptr noundef %1, i32 noundef %2, ptr noundef %3, i32 noundef 0, i32 noundef 0) #21
  %6 = icmp eq i32 %5, -1
  br i1 %6, label %12, label %7

7:                                                ; preds = %4
  %8 = getelementptr i8, ptr %3, i64 4
  %.val = load i32, ptr %8, align 4, !tbaa !20
  %9 = icmp sgt i32 %.val, 65536
  br i1 %9, label %12, label %10

10:                                               ; preds = %7
  %11 = tail call ptr @Kit_SopFactor(ptr noundef nonnull %3, i32 noundef %5, i32 noundef %2, ptr noundef nonnull %3) #21
  br label %12

12:                                               ; preds = %7, %4, %10
  %.0 = phi ptr [ %11, %10 ], [ null, %4 ], [ null, %7 ]
  ret ptr %.0
}